; ModuleID = '10/2222.c'
source_filename = "10/2222.c"
target datalayout = "e-m:e-p270:32:32-p271:32:32-p272:64:64-i64:64-f80:128-n8:16:32:64-S128"
target triple = "x86_64-pc-linux-gnu"

@.str = private unnamed_addr constant [3 x i8] c"%d\00", align 1
@.str.1 = private unnamed_addr constant [4 x i8] c"%d\0A\00", align 1

; Function Attrs: noinline nounwind uwtable
define dso_local i32 @main() #0 {
  %1 = alloca i32, align 4
  %2 = alloca [256 x [256 x i32]], align 16
  %3 = alloca [256 x i32], align 16
  %4 = alloca i32, align 4
  %5 = alloca i32, align 4
  %6 = alloca i32, align 4
  store i32 0, i32* %1, align 4
  %7 = call i32 (i8*, ...) @__isoc99_scanf(i8* getelementptr inbounds ([3 x i8], [3 x i8]* @.str, i64 0, i64 0), i32* %6)
  store i32 1, i32* %4, align 4
  br label %8

8:                                                ; preds = %17, %0
  %9 = load i32, i32* %4, align 4
  %10 = load i32, i32* %6, align 4
  %11 = icmp sle i32 %9, %10
  br i1 %11, label %12, label %20

12:                                               ; preds = %8
  %13 = load i32, i32* %4, align 4
  %14 = sext i32 %13 to i64
  %15 = getelementptr inbounds [256 x i32], [256 x i32]* %3, i64 0, i64 %14
  %16 = call i32 (i8*, ...) @__isoc99_scanf(i8* getelementptr inbounds ([3 x i8], [3 x i8]* @.str, i64 0, i64 0), i32* %15)
  br label %17

17:                                               ; preds = %12
  %18 = load i32, i32* %4, align 4
  %19 = add nsw i32 %18, 1
  store i32 %19, i32* %4, align 4
  br label %8

20:                                               ; preds = %8
  store i32 1, i32* %5, align 4
  br label %21

21:                                               ; preds = %61, %20
  %22 = load i32, i32* %5, align 4
  %23 = load i32, i32* %6, align 4
  %24 = icmp sle i32 %22, %23
  br i1 %24, label %25, label %64

25:                                               ; preds = %21
  %26 = load i32, i32* %5, align 4
  %27 = add nsw i32 %26, 1
  store i32 %27, i32* %4, align 4
  br label %28

28:                                               ; preds = %57, %25
  %29 = load i32, i32* %4, align 4
  %30 = load i32, i32* %6, align 4
  %31 = icmp sle i32 %29, %30
  br i1 %31, label %32, label %60

32:                                               ; preds = %28
  %33 = load i32, i32* %4, align 4
  %34 = sext i32 %33 to i64
  %35 = getelementptr inbounds [256 x i32], [256 x i32]* %3, i64 0, i64 %34
  %36 = load i32, i32* %35, align 4
  %37 = load i32, i32* %5, align 4
  %38 = sext i32 %37 to i64
  %39 = getelementptr inbounds [256 x i32], [256 x i32]* %3, i64 0, i64 %38
  %40 = load i32, i32* %39, align 4
  %41 = icmp sle i32 %36, %40
  br i1 %41, label %42, label %49

42:                                               ; preds = %32
  %43 = load i32, i32* %4, align 4
  %44 = sext i32 %43 to i64
  %45 = getelementptr inbounds [256 x [256 x i32]], [256 x [256 x i32]]* %2, i64 0, i64 %44
  %46 = load i32, i32* %5, align 4
  %47 = sext i32 %46 to i64
  %48 = getelementptr inbounds [256 x i32], [256 x i32]* %45, i64 0, i64 %47
  store i32 1, i32* %48, align 4
  br label %56

49:                                               ; preds = %32
  %50 = load i32, i32* %4, align 4
  %51 = sext i32 %50 to i64
  %52 = getelementptr inbounds [256 x [256 x i32]], [256 x [256 x i32]]* %2, i64 0, i64 %51
  %53 = load i32, i32* %5, align 4
  %54 = sext i32 %53 to i64
  %55 = getelementptr inbounds [256 x i32], [256 x i32]* %52, i64 0, i64 %54
  store i32 0, i32* %55, align 4
  br label %56

56:                                               ; preds = %49, %42
  br label %57

57:                                               ; preds = %56
  %58 = load i32, i32* %4, align 4
  %59 = add nsw i32 %58, 1
  store i32 %59, i32* %4, align 4
  br label %28

60:                                               ; preds = %28
  br label %61

61:                                               ; preds = %60
  %62 = load i32, i32* %5, align 4
  %63 = add nsw i32 %62, 1
  store i32 %63, i32* %5, align 4
  br label %21

64:                                               ; preds = %21
  %65 = getelementptr inbounds [256 x i32], [256 x i32]* %3, i64 0, i64 1
  store i32 0, i32* %65, align 4
  store i32 1, i32* %5, align 4
  br label %66

66:                                               ; preds = %140, %64
  %67 = load i32, i32* %5, align 4
  %68 = load i32, i32* %6, align 4
  %69 = icmp sle i32 %67, %68
  br i1 %69, label %70, label %141

70:                                               ; preds = %66
  %71 = load i32, i32* %5, align 4
  %72 = add nsw i32 %71, 1
  store i32 %72, i32* %4, align 4
  br label %73

73:                                               ; preds = %99, %70
  %74 = load i32, i32* %4, align 4
  %75 = load i32, i32* %6, align 4
  %76 = icmp sle i32 %74, %75
  br i1 %76, label %77, label %102

77:                                               ; preds = %73
  %78 = load i32, i32* %4, align 4
  %79 = sext i32 %78 to i64
  %80 = getelementptr inbounds [256 x [256 x i32]], [256 x [256 x i32]]* %2, i64 0, i64 %79
  %81 = load i32, i32* %5, align 4
  %82 = sext i32 %81 to i64
  %83 = getelementptr inbounds [256 x i32], [256 x i32]* %80, i64 0, i64 %82
  %84 = load i32, i32* %83, align 4
  %85 = icmp eq i32 %84, 1
  br i1 %85, label %86, label %98

86:                                               ; preds = %77
  %87 = load i32, i32* %5, align 4
  %88 = sext i32 %87 to i64
  %89 = getelementptr inbounds [256 x i32], [256 x i32]* %3, i64 0, i64 %88
  %90 = load i32, i32* %89, align 4
  %91 = add nsw i32 1, %90
  %92 = load i32, i32* %4, align 4
  %93 = sext i32 %92 to i64
  %94 = getelementptr inbounds [256 x [256 x i32]], [256 x [256 x i32]]* %2, i64 0, i64 %93
  %95 = load i32, i32* %5, align 4
  %96 = sext i32 %95 to i64
  %97 = getelementptr inbounds [256 x i32], [256 x i32]* %94, i64 0, i64 %96
  store i32 %91, i32* %97, align 4
  br label %98

98:                                               ; preds = %86, %77
  br label %99

99:                                               ; preds = %98
  %100 = load i32, i32* %4, align 4
  %101 = add nsw i32 %100, 1
  store i32 %101, i32* %4, align 4
  br label %73

102:                                              ; preds = %73
  %103 = load i32, i32* %5, align 4
  %104 = add nsw i32 %103, 1
  store i32 %104, i32* %5, align 4
  %105 = load i32, i32* %5, align 4
  %106 = sext i32 %105 to i64
  %107 = getelementptr inbounds [256 x i32], [256 x i32]* %3, i64 0, i64 %106
  store i32 0, i32* %107, align 4
  store i32 1, i32* %4, align 4
  br label %108

108:                                              ; preds = %137, %102
  %109 = load i32, i32* %4, align 4
  %110 = load i32, i32* %5, align 4
  %111 = icmp slt i32 %109, %110
  br i1 %111, label %112, label %140

112:                                              ; preds = %108
  %113 = load i32, i32* %5, align 4
  %114 = sext i32 %113 to i64
  %115 = getelementptr inbounds [256 x i32], [256 x i32]* %3, i64 0, i64 %114
  %116 = load i32, i32* %115, align 4
  %117 = load i32, i32* %5, align 4
  %118 = sext i32 %117 to i64
  %119 = getelementptr inbounds [256 x [256 x i32]], [256 x [256 x i32]]* %2, i64 0, i64 %118
  %120 = load i32, i32* %4, align 4
  %121 = sext i32 %120 to i64
  %122 = getelementptr inbounds [256 x i32], [256 x i32]* %119, i64 0, i64 %121
  %123 = load i32, i32* %122, align 4
  %124 = icmp slt i32 %116, %123
  br i1 %124, label %125, label %136

125:                                              ; preds = %112
  %126 = load i32, i32* %5, align 4
  %127 = sext i32 %126 to i64
  %128 = getelementptr inbounds [256 x [256 x i32]], [256 x [256 x i32]]* %2, i64 0, i64 %127
  %129 = load i32, i32* %4, align 4
  %130 = sext i32 %129 to i64
  %131 = getelementptr inbounds [256 x i32], [256 x i32]* %128, i64 0, i64 %130
  %132 = load i32, i32* %131, align 4
  %133 = load i32, i32* %5, align 4
  %134 = sext i32 %133 to i64
  %135 = getelementptr inbounds [256 x i32], [256 x i32]* %3, i64 0, i64 %134
  store i32 %132, i32* %135, align 4
  br label %136

136:                                              ; preds = %125, %112
  br label %137

137:                                              ; preds = %136
  %138 = load i32, i32* %4, align 4
  %139 = add nsw i32 %138, 1
  store i32 %139, i32* %4, align 4
  br label %108

140:                                              ; preds = %108
  br label %66

141:                                              ; preds = %66
  store i32 1, i32* %4, align 4
  br label %142

142:                                              ; preds = %161, %141
  %143 = load i32, i32* %4, align 4
  %144 = load i32, i32* %6, align 4
  %145 = icmp sle i32 %143, %144
  br i1 %145, label %146, label %164

146:                                              ; preds = %142
  %147 = getelementptr inbounds [256 x i32], [256 x i32]* %3, i64 0, i64 1
  %148 = load i32, i32* %147, align 4
  %149 = load i32, i32* %4, align 4
  %150 = sext i32 %149 to i64
  %151 = getelementptr inbounds [256 x i32], [256 x i32]* %3, i64 0, i64 %150
  %152 = load i32, i32* %151, align 4
  %153 = icmp slt i32 %148, %152
  br i1 %153, label %154, label %160

154:                                              ; preds = %146
  %155 = load i32, i32* %4, align 4
  %156 = sext i32 %155 to i64
  %157 = getelementptr inbounds [256 x i32], [256 x i32]* %3, i64 0, i64 %156
  %158 = load i32, i32* %157, align 4
  %159 = getelementptr inbounds [256 x i32], [256 x i32]* %3, i64 0, i64 1
  store i32 %158, i32* %159, align 4
  br label %160

160:                                              ; preds = %154, %146
  br label %161

161:                                              ; preds = %160
  %162 = load i32, i32* %4, align 4
  %163 = add nsw i32 %162, 1
  store i32 %163, i32* %4, align 4
  br label %142

164:                                              ; preds = %142
  %165 = getelementptr inbounds [256 x i32], [256 x i32]* %3, i64 0, i64 1
  %166 = load i32, i32* %165, align 4
  %167 = add nsw i32 %166, 1
  %168 = call i32 (i8*, ...) @printf(i8* getelementptr inbounds ([4 x i8], [4 x i8]* @.str.1, i64 0, i64 0), i32 %167)
  %169 = load i32, i32* %1, align 4
  ret i32 %169
}

declare dso_local i32 @__isoc99_scanf(i8*, ...) #1

declare dso_local i32 @printf(i8*, ...) #1


!llvm.module.flags = !{!0}
!llvm.ident = !{!1}

!0 = !{i32 1, !"wchar_size", i32 4}
!1 = !{!"clang version 10.0.0-4ubuntu1 "}
